Certificate:
    Data:
        Version: 3 (0x2)
        Serial Number: 1 (0x1)
        Signature Algorithm: sha1WithRSAEncryption
        Issuer: DC=org, DC=simple, O=Simple Inc, OU=Simple Signing CA, CN=Simple Signing CA
        Validity
            Not Before: Dec  6 23:53:36 2020 GMT
            Not After : Dec  6 23:53:36 2022 GMT
        Subject: DC=org, DC=simple, O=Simple Inc, CN=www.simple.org
        Subject Public Key Info:
            Public Key Algorithm: rsaEncryption
                RSA Public-Key: (2048 bit)
                Modulus:
                    00:a2:1c:65:d4:7d:b9:0a:90:bb:25:fc:22:b6:87:
                    0a:43:ab:eb:61:8b:07:a1:c2:62:15:b2:f6:d7:a1:
                    98:7c:9a:4b:c3:42:3e:8e:68:73:ea:7d:18:6f:08:
                    e3:ea:0c:10:28:47:90:e8:4f:41:9c:fe:60:e6:c1:
                    66:b0:a1:64:ea:e9:31:72:3e:66:3b:b4:78:61:f0:
                    da:f1:db:72:0c:4a:b6:80:e2:0b:52:35:6d:54:34:
                    24:a9:e6:64:bb:d3:3c:d9:63:2e:2d:1a:3a:a4:be:
                    77:22:c7:ab:e9:05:55:64:0c:4c:06:9f:18:db:a7:
                    3b:d3:29:94:6e:a7:9a:8a:00:c9:d3:c8:19:af:04:
                    94:90:92:c2:82:44:68:4e:fe:f0:f5:91:ed:2f:29:
                    2b:a7:9e:e4:8d:32:60:b1:fc:2e:9f:c5:53:fe:3d:
                    b1:15:2d:93:93:43:d1:8e:d0:31:d4:8c:31:f7:dd:
                    bd:31:80:a8:8b:52:a7:3f:7a:cd:94:fb:11:8b:09:
                    56:dc:cd:5b:08:4c:98:b1:35:fc:72:d7:98:4c:a6:
                    2b:50:d4:40:3b:c6:73:3c:cc:e7:2c:bc:c2:ba:59:
                    02:11:df:cb:fc:7d:38:c8:fc:40:9a:8b:b3:79:36:
                    f5:1a:bc:c7:b3:cc:4b:58:e1:c4:f3:61:8d:ad:e9:
                    68:39
                Exponent: 65537 (0x10001)
        X509v3 extensions:
            X509v3 Key Usage: critical
                Digital Signature, Key Encipherment
            X509v3 Basic Constraints: 
                CA:FALSE
            X509v3 Extended Key Usage: 
                TLS Web Server Authentication, TLS Web Client Authentication
            X509v3 Subject Key Identifier: 
                87:A5:75:B7:37:A6:82:5A:B3:B7:D3:AF:38:A1:54:2F:EA:84:65:B0
            X509v3 Authority Key Identifier: 
                keyid:28:F7:4A:59:90:2D:7A:66:F7:64:C5:13:F3:4E:42:DE:68:BC:C5:FD

            X509v3 Subject Alternative Name: 
                DNS:www.simple.org
    Signature Algorithm: sha1WithRSAEncryption
         af:96:c0:6c:8f:f7:03:5e:92:60:97:c1:d2:dd:e1:3f:3c:cc:
         8a:e8:e9:c8:1a:31:9a:3e:91:93:03:b3:5d:8e:3f:12:07:18:
         a0:db:b2:53:70:fd:7e:b6:46:16:75:16:58:6d:76:ff:c9:67:
         0a:a8:de:e4:2d:ad:13:0f:06:dc:e1:52:7c:ee:e8:66:9d:cc:
         3a:eb:d6:31:43:f8:08:e6:60:b4:72:54:ed:21:f9:1a:79:cd:
         37:73:3f:8f:29:ad:8c:01:59:30:83:32:b5:12:8e:47:b9:41:
         4a:4d:d5:1c:ec:7d:f1:d0:0c:57:71:f9:5d:db:98:06:36:c0:
         09:86:db:29:8b:e2:23:81:a3:74:af:ec:e3:48:a9:2e:0e:af:
         87:9c:32:04:71:d3:a5:46:02:40:d5:81:4b:b0:f2:65:45:fb:
         43:ff:78:ab:ce:eb:16:1e:46:d9:4c:6c:36:82:fe:06:6d:50:
         f3:3e:37:2d:15:d0:35:5e:c1:2c:03:ce:f8:e8:3c:e1:9f:9e:
         0f:ca:d6:11:cb:b0:25:87:c0:ce:35:47:bd:23:c0:1e:b2:0c:
         f6:e3:46:50:52:f0:66:0e:3b:e8:66:02:54:ea:08:64:27:c3:
         b3:28:58:2f:d1:ff:f1:36:cb:ca:1f:a6:76:a9:80:5a:64:53:
         33:30:4d:ff
-----BEGIN CERTIFICATE-----
MIID6TCCAtGgAwIBAgIBATANBgkqhkiG9w0BAQUFADB6MRMwEQYKCZImiZPyLGQB
GRYDb3JnMRYwFAYKCZImiZPyLGQBGRYGc2ltcGxlMRMwEQYDVQQKDApTaW1wbGUg
SW5jMRowGAYDVQQLDBFTaW1wbGUgU2lnbmluZyBDQTEaMBgGA1UEAwwRU2ltcGxl
IFNpZ25pbmcgQ0EwHhcNMjAxMjA2MjM1MzM2WhcNMjIxMjA2MjM1MzM2WjBbMRMw
EQYKCZImiZPyLGQBGRYDb3JnMRYwFAYKCZImiZPyLGQBGRYGc2ltcGxlMRMwEQYD
VQQKDApTaW1wbGUgSW5jMRcwFQYDVQQDDA53d3cuc2ltcGxlLm9yZzCCASIwDQYJ
KoZIhvcNAQEBBQADggEPADCCAQoCggEBAKIcZdR9uQqQuyX8IraHCkOr62GLB6HC
YhWy9tehmHyaS8NCPo5oc+p9GG8I4+oMEChHkOhPQZz+YObBZrChZOrpMXI+Zju0
eGHw2vHbcgxKtoDiC1I1bVQ0JKnmZLvTPNljLi0aOqS+dyLHq+kFVWQMTAafGNun
O9MplG6nmooAydPIGa8ElJCSwoJEaE7+8PWR7S8pK6ee5I0yYLH8Lp/FU/49sRUt
k5ND0Y7QMdSMMffdvTGAqItSpz96zZT7EYsJVtzNWwhMmLE1/HLXmEymK1DUQDvG
czzM5yy8wrpZAhHfy/x9OMj8QJqLs3k29Rq8x7PMS1jhxPNhja3paDkCAwEAAaOB
mDCBlTAOBgNVHQ8BAf8EBAMCBaAwCQYDVR0TBAIwADAdBgNVHSUEFjAUBggrBgEF
BQcDAQYIKwYBBQUHAwIwHQYDVR0OBBYEFIeldbc3poJas7fTrzihVC/qhGWwMB8G
A1UdIwQYMBaAFCj3SlmQLXpm92TFE/NOQt5ovMX9MBkGA1UdEQQSMBCCDnd3dy5z
aW1wbGUub3JnMA0GCSqGSIb3DQEBBQUAA4IBAQCvlsBsj/cDXpJgl8HS3eE/PMyK
6OnIGjGaPpGTA7Ndjj8SBxig27JTcP1+tkYWdRZYbXb/yWcKqN7kLa0TDwbc4VJ8
7uhmncw669YxQ/gI5mC0clTtIfkaec03cz+PKa2MAVkwgzK1Eo5HuUFKTdUc7H3x
0AxXcfld25gGNsAJhtspi+IjgaN0r+zjSKkuDq+HnDIEcdOlRgJA1YFLsPJlRftD
/3irzusWHkbZTGw2gv4GbVDzPjctFdA1XsEsA8746Dzhn54PytYRy7Alh8DONUe9
I8Aesgz240ZQUvBmDjvoZgJU6ghkJ8OzKFgv0f/xNsvKH6Z2qYBaZFMzME3/
-----END CERTIFICATE-----
