-----BEGIN ENCRYPTED PRIVATE KEY-----
MIIFHDBOBgkqhkiG9w0BBQ0wQTApBgkqhkiG9w0BBQwwHAQIZycyaNKFoCoCAggA
MAwGCCqGSIb3DQIJBQAwFAYIKoZIhvcNAwcECF24WZPiHwpoBIIEyG/js3v8fDjR
o7FxFZHfsUsKbtucs6XADg6UyNfH5P6j93S30MnqW+YLVXPGthjV6zFO8xNnbxFy
nE9lqMd/Bs5gw1DNBaSgZed0WAlgUHlnpZ5zRq9mK0fTCv5PLM5ieA9ez5KNqUvD
M/qW3KC1mDShNbBZODeoP3prgqnSed+DOX/0FVP6cAubo2kFsRsZzKM/B1vayEKt
lVeDK+HqByTob/OOu0N9VFeRfKfp91B5SEI+TxnuJW7eSmZolDxS+bIg2SjhJdXx
Joictz3L5r/IHYEIWRdjguRtcWGMY8Csr7Xk5EVNhCsJ2KGUHO/Ua+ujc96dANOb
uyMOLSe6c0ElR6dHoLGvgNYa/0OpPJ2f7kF7/iRFpi4TKmilhmWvYAt/883Wze5r
nY1fRs9FURUKraq5whhKr9DdXOZ0V8vh/XmI7dxfwwrz6akpjVuqOFhz+y44OoJm
VNl/X5eKVjrrhtEFwtkEyIOyJBqGZWZ6xapPIZXi0+ljVCrhEM+4c21E6WHMA+nm
Ygz66inTS8JCerc3983z9Xr2+VF/Taf5kfx6B7vWsSEAZlQ98PLjIfMok8XRf2vb
FHTHEhmGJYT43/K1Au2+puMWqfL3A2EWEVv/a37jDhIxlKdXjJbd0G3zXdxr5gEL
RuCGHLSPiRRPMyb501fE2dRQAcdlevbBLVAgUvNiyFDtcMmfacB/QyUfsUbp8S7E
gUndLe8Kn92Dgf4vWVow20c45l9AqvkQKANjpeX/5cN5jW0MI4B+/V6eBrk3MW/D
ZRrghQHdIXkT56eYPXnGp68GIamWD6FeEib2npyDuYli9COIAm/5B0XRQvVgJuH6
aBNCJbHZRJUZPpu4QP4T7OWLDEdev5jfxvu9Uad5GPsF0ShtjzR5xgKIZzNvMHsr
nptJ+1bgGBGpO5d9VphHQ7p4PbT3fqp1ngdahWup9fabt1Ot8iVlOUARDI1AE7PF
BxKUv+OdSqDbHVoJ76SecYvwW3dP9O/AU2pDp/BzC+hZFNiGDxmsRs1kW5rpdV2L
pYcaRvM04hHPtlQb5TT6l7bEBITRXB050QiMbyvyvWzBUEIQ0YdVM/g+MZtGguig
/hgViuajU4WRpr+xcwM0kZOckd2OucT4z7lXVUd6oKInGAnxLATsLPO7Dh0RvVTc
5rmbf6Qp+bXOL3ahkxEvqOOppG00XWvabyXWAgNJLvdJpdnaiZwMCSurjnUZw8r9
kx4gv/qLzuB2LLDAk7c4Jf9QikzSgMbT2dIms6zsJyMQ2xVkI9ThF82vi9menV0d
yakjFr5Os2ZiKNvgbSu6Z0cIjM3p/WfCfaAViix1m5HZAXa+PoKiLvI2kfjsmadv
c62N0AEUDmDf3ruJ6qOTzjcFQfxdD1MSNhhfekPhcZv0Ozv8FVfUIlyBONxN2WS3
AyXGwKAK+7ULPFsgYyuIU4ll5+KKeIdL18ODIcH1ToEyBcimzHllWO5UHPNolGG7
t8dTf51d4n4Aw77zsQ9YC5KnHLWwQMgyqUvc4Hd8v7eKjwLpglnBygV7tf1Xa2HS
GRwN3SsBHKSxqoOjtFDBPLRcscCrpszGi5/A2YZldtuE8KNS1A4MkAN0Sk+h/rUR
2XUNa8wbWJm8eLtXBADPrA==
-----END ENCRYPTED PRIVATE KEY-----
Certificate:
    Data:
        Version: 3 (0x2)
        Serial Number: 2 (0x2)
        Signature Algorithm: sha1WithRSAEncryption
        Issuer: DC=org, DC=simple, O=Simple Inc, OU=Simple Signing CA, CN=Simple Signing CA
        Validity
            Not Before: Dec  7 00:01:14 2020 GMT
            Not After : Dec  7 00:01:14 2022 GMT
        Subject: DC=org, DC=simple, O=Simple Inc, CN=Fred Flinstone
        Subject Public Key Info:
            Public Key Algorithm: rsaEncryption
                RSA Public-Key: (2048 bit)
                Modulus:
                    00:aa:16:ce:d4:e8:36:96:c4:0f:6b:a1:15:96:9a:
                    d7:ed:2b:b2:f1:13:cd:e8:85:3e:15:a0:ae:8b:2e:
                    de:e6:35:06:91:2c:e6:73:e3:2b:ef:0a:66:32:c5:
                    75:d8:df:c0:a5:be:9c:12:1f:21:a7:06:c9:92:57:
                    c6:ee:65:90:21:db:d1:95:1a:25:c6:55:2c:26:d0:
                    0c:d0:08:e7:cc:0a:30:ae:20:dd:f5:6f:cf:4f:bf:
                    7b:ac:26:e3:15:bf:0b:63:23:19:5d:55:d1:12:30:
                    3f:cc:5a:94:14:5e:b5:65:ce:89:20:f3:02:8b:15:
                    9d:af:4e:a7:6e:2e:80:80:01:a5:db:9b:d6:11:90:
                    21:b3:5e:68:64:98:76:4a:10:ca:d0:3f:c0:88:02:
                    37:0b:ec:9e:77:05:d9:4a:85:78:4f:a0:25:98:41:
                    9d:81:fd:e7:ef:b6:bd:45:17:33:1f:89:d2:03:45:
                    e0:de:3a:97:bd:25:34:63:05:7a:3f:7e:da:5c:5f:
                    d0:66:d3:6b:dd:1b:2e:53:3d:b0:73:bd:e6:35:57:
                    ad:df:ac:9d:5a:56:1a:37:b9:bf:28:cf:7d:47:0e:
                    fc:62:82:ad:8f:61:05:29:b6:39:73:4f:24:a1:f5:
                    aa:fc:74:29:bd:eb:c3:3f:52:e6:7a:b0:69:f1:96:
                    1a:73
                Exponent: 65537 (0x10001)
        X509v3 extensions:
            X509v3 Key Usage: critical
                Digital Signature, Key Encipherment
            X509v3 Basic Constraints: 
                CA:FALSE
            X509v3 Extended Key Usage: 
                E-mail Protection, TLS Web Client Authentication
            X509v3 Subject Key Identifier: 
                38:37:74:8B:C2:3E:0E:33:CD:4F:F0:CA:A2:AA:12:09:C6:C2:69:32
            X509v3 Authority Key Identifier: 
                keyid:28:F7:4A:59:90:2D:7A:66:F7:64:C5:13:F3:4E:42:DE:68:BC:C5:FD

            X509v3 Subject Alternative Name: 
                email:fred@simple.org
    Signature Algorithm: sha1WithRSAEncryption
         73:45:dc:96:96:f9:fa:76:b9:04:56:02:52:e8:ab:1c:7c:0e:
         b3:e9:1e:fe:e0:68:75:38:a3:c8:97:86:27:d8:a9:d0:6f:dc:
         d5:41:a8:f3:2b:d3:f0:dd:1f:35:57:79:6a:e5:bd:b4:9f:60:
         6f:0d:ec:bb:4b:28:b0:0c:32:68:d8:17:19:54:38:eb:1d:b0:
         bd:e8:71:90:ed:d7:a8:3a:5b:ae:76:94:99:c0:6b:79:97:69:
         cc:69:10:ee:0c:6f:c3:37:a1:1c:18:31:da:ec:7f:b0:7c:4a:
         3e:b6:17:03:57:9c:c9:73:c6:06:74:01:98:b2:44:46:fe:74:
         9b:c2:e1:2c:17:22:6d:ec:7a:df:b0:9a:d7:cd:3b:e2:cd:5a:
         31:0c:e6:99:1d:56:67:6e:08:78:ed:5e:90:a3:63:4d:45:41:
         83:6f:9a:5b:7d:91:d8:c4:f1:bc:4a:9a:b6:27:45:bd:e0:fe:
         b2:6c:93:75:95:07:ea:77:41:b2:bf:21:8f:9c:c5:dd:29:71:
         33:d0:41:06:67:44:7b:26:0c:b0:ec:ca:ee:38:b2:b2:fc:4d:
         b3:d9:44:49:f6:fa:d0:c5:c9:ed:bf:cb:22:9d:4f:6c:e7:48:
         75:ee:60:f0:7b:3c:0a:eb:a3:fe:c1:03:d7:4d:f9:f4:8f:53:
         c7:59:83:30
-----BEGIN CERTIFICATE-----
MIID6jCCAtKgAwIBAgIBAjANBgkqhkiG9w0BAQUFADB6MRMwEQYKCZImiZPyLGQB
GRYDb3JnMRYwFAYKCZImiZPyLGQBGRYGc2ltcGxlMRMwEQYDVQQKDApTaW1wbGUg
SW5jMRowGAYDVQQLDBFTaW1wbGUgU2lnbmluZyBDQTEaMBgGA1UEAwwRU2ltcGxl
IFNpZ25pbmcgQ0EwHhcNMjAxMjA3MDAwMTE0WhcNMjIxMjA3MDAwMTE0WjBbMRMw
EQYKCZImiZPyLGQBGRYDb3JnMRYwFAYKCZImiZPyLGQBGRYGc2ltcGxlMRMwEQYD
VQQKDApTaW1wbGUgSW5jMRcwFQYDVQQDDA5GcmVkIEZsaW5zdG9uZTCCASIwDQYJ
KoZIhvcNAQEBBQADggEPADCCAQoCggEBAKoWztToNpbED2uhFZaa1+0rsvETzeiF
PhWgrosu3uY1BpEs5nPjK+8KZjLFddjfwKW+nBIfIacGyZJXxu5lkCHb0ZUaJcZV
LCbQDNAI58wKMK4g3fVvz0+/e6wm4xW/C2MjGV1V0RIwP8xalBRetWXOiSDzAosV
na9Op24ugIABpdub1hGQIbNeaGSYdkoQytA/wIgCNwvsnncF2UqFeE+gJZhBnYH9
5++2vUUXMx+J0gNF4N46l70lNGMFej9+2lxf0GbTa90bLlM9sHO95jVXrd+snVpW
Gje5vyjPfUcO/GKCrY9hBSm2OXNPJKH1qvx0Kb3rwz9S5nqwafGWGnMCAwEAAaOB
mTCBljAOBgNVHQ8BAf8EBAMCBaAwCQYDVR0TBAIwADAdBgNVHSUEFjAUBggrBgEF
BQcDBAYIKwYBBQUHAwIwHQYDVR0OBBYEFDg3dIvCPg4zzU/wyqKqEgnGwmkyMB8G
A1UdIwQYMBaAFCj3SlmQLXpm92TFE/NOQt5ovMX9MBoGA1UdEQQTMBGBD2ZyZWRA
c2ltcGxlLm9yZzANBgkqhkiG9w0BAQUFAAOCAQEAc0Xclpb5+na5BFYCUuirHHwO
s+ke/uBodTijyJeGJ9ip0G/c1UGo8yvT8N0fNVd5auW9tJ9gbw3su0sosAwyaNgX
GVQ46x2wvehxkO3XqDpbrnaUmcBreZdpzGkQ7gxvwzehHBgx2ux/sHxKPrYXA1ec
yXPGBnQBmLJERv50m8LhLBcibex637Ca18074s1aMQzmmR1WZ24IeO1ekKNjTUVB
g2+aW32R2MTxvEqatidFveD+smyTdZUH6ndBsr8hj5zF3SlxM9BBBmdEeyYMsOzK
7jiysvxNs9lESfb60MXJ7b/LIp1PbOdIde5g8Hs8Cuuj/sED10359I9Tx1mDMA==
-----END CERTIFICATE-----
