Certificate:
    Data:
        Version: 3 (0x2)
        Serial Number: 2 (0x2)
        Signature Algorithm: sha1WithRSAEncryption
        Issuer: DC=org, DC=simple, O=Simple Inc, OU=Simple Root CA, CN=Simple Root CA
        Validity
            Not Before: Dec  6 23:45:15 2020 GMT
            Not After : Dec  6 23:45:15 2030 GMT
        Subject: DC=org, DC=simple, O=Simple Inc, OU=Simple Signing CA, CN=Simple Signing CA
        Subject Public Key Info:
            Public Key Algorithm: rsaEncryption
                RSA Public-Key: (2048 bit)
                Modulus:
                    00:b5:7f:bb:2c:96:e0:45:37:7c:82:75:ea:96:ff:
                    dd:60:0d:dd:f4:f5:fc:d3:57:96:1f:93:68:0c:73:
                    7f:03:61:54:35:3e:02:a5:17:1f:61:1c:b1:c2:2c:
                    82:50:66:26:c0:91:c1:b7:c2:d5:a5:33:c0:37:d8:
                    d9:35:e7:98:86:68:82:1e:42:90:af:83:ae:f0:df:
                    6b:28:13:f7:cc:19:4f:a3:7f:85:af:fd:ff:18:cc:
                    30:98:9b:72:ac:d0:b9:6f:d1:f8:a3:a0:11:ad:97:
                    17:f4:54:0b:19:44:ef:44:f5:57:4e:9c:e2:4c:1a:
                    76:5b:91:cf:e5:50:15:e7:8b:88:26:50:ad:c9:fe:
                    51:dc:64:e3:77:cb:7c:77:a6:50:9e:09:28:5f:9b:
                    08:ca:03:cc:c9:bc:dd:9d:60:77:12:f4:56:64:62:
                    ff:a7:d4:ce:39:78:a3:c8:60:ee:be:c2:bd:ed:3c:
                    8e:6f:82:50:ed:2a:d3:a8:14:b8:db:be:7e:6c:c5:
                    1f:25:eb:5e:ee:40:1c:aa:40:9a:ac:b3:2d:2f:2c:
                    8f:f4:05:ef:0d:24:3f:a6:ce:e6:e8:52:f4:68:3b:
                    8a:e7:cc:f0:45:ad:5e:70:cb:7c:75:b3:68:df:01:
                    d7:26:44:b0:8c:51:b9:a2:26:f7:a0:84:1e:de:12:
                    47:c3
                Exponent: 65537 (0x10001)
        X509v3 extensions:
            X509v3 Key Usage: critical
                Certificate Sign, CRL Sign
            X509v3 Basic Constraints: critical
                CA:TRUE, pathlen:0
            X509v3 Subject Key Identifier: 
                28:F7:4A:59:90:2D:7A:66:F7:64:C5:13:F3:4E:42:DE:68:BC:C5:FD
            X509v3 Authority Key Identifier: 
                keyid:81:1F:00:0B:12:F4:81:49:E3:7C:EA:ED:A3:04:14:B5:34:85:CC:97

    Signature Algorithm: sha1WithRSAEncryption
         81:1a:29:9b:c3:c2:88:41:a4:49:a6:0d:20:89:8f:d8:c2:55:
         18:0e:49:37:ba:0a:63:f4:04:be:2b:9f:c8:18:43:e9:0f:9f:
         bf:c5:20:9c:ea:9e:51:13:3b:22:ca:c8:c4:07:32:c9:d6:49:
         d1:6a:72:22:e6:1c:1e:3d:51:70:be:28:d7:7b:0d:71:98:3a:
         8f:a6:fb:98:21:60:05:39:26:77:72:e7:dd:ef:16:22:af:1e:
         d2:eb:3e:3a:b0:96:9c:a9:0a:1a:35:48:8c:ce:41:35:1b:a1:
         78:75:a9:d5:ae:ca:96:c6:b3:96:95:f5:d6:32:c5:84:36:21:
         f1:c2:4f:9c:95:8a:ee:88:ad:0b:66:39:c6:f8:ad:f6:95:28:
         ba:98:56:bf:46:76:a7:4e:e0:34:45:d0:38:a9:8e:6b:a6:2b:
         0a:d6:77:b3:d0:ff:45:0d:96:c2:30:05:60:2c:0d:b0:83:e5:
         8d:31:68:0b:99:b9:f2:35:bf:22:1c:e9:7e:cf:8e:ac:b6:ad:
         21:b9:2f:98:f7:df:b6:02:f1:af:81:a2:d0:1d:0e:11:cd:72:
         72:42:05:c8:c1:0f:a2:f8:77:14:d4:db:6a:47:91:01:80:26:
         03:4b:16:52:df:21:d7:51:08:f2:74:66:89:a8:f3:c3:f9:be:
         f9:ce:bd:bd
-----BEGIN CERTIFICATE-----
MIIDzzCCAregAwIBAgIBAjANBgkqhkiG9w0BAQUFADB0MRMwEQYKCZImiZPyLGQB
GRYDb3JnMRYwFAYKCZImiZPyLGQBGRYGc2ltcGxlMRMwEQYDVQQKDApTaW1wbGUg
SW5jMRcwFQYDVQQLDA5TaW1wbGUgUm9vdCBDQTEXMBUGA1UEAwwOU2ltcGxlIFJv
b3QgQ0EwHhcNMjAxMjA2MjM0NTE1WhcNMzAxMjA2MjM0NTE1WjB6MRMwEQYKCZIm
iZPyLGQBGRYDb3JnMRYwFAYKCZImiZPyLGQBGRYGc2ltcGxlMRMwEQYDVQQKDApT
aW1wbGUgSW5jMRowGAYDVQQLDBFTaW1wbGUgU2lnbmluZyBDQTEaMBgGA1UEAwwR
U2ltcGxlIFNpZ25pbmcgQ0EwggEiMA0GCSqGSIb3DQEBAQUAA4IBDwAwggEKAoIB
AQC1f7ssluBFN3yCdeqW/91gDd309fzTV5Yfk2gMc38DYVQ1PgKlFx9hHLHCLIJQ
ZibAkcG3wtWlM8A32Nk155iGaIIeQpCvg67w32soE/fMGU+jf4Wv/f8YzDCYm3Ks
0Llv0fijoBGtlxf0VAsZRO9E9VdOnOJMGnZbkc/lUBXni4gmUK3J/lHcZON3y3x3
plCeCShfmwjKA8zJvN2dYHcS9FZkYv+n1M45eKPIYO6+wr3tPI5vglDtKtOoFLjb
vn5sxR8l617uQByqQJqssy0vLI/0Be8NJD+mzuboUvRoO4rnzPBFrV5wy3x1s2jf
AdcmRLCMUbmiJveghB7eEkfDAgMBAAGjZjBkMA4GA1UdDwEB/wQEAwIBBjASBgNV
HRMBAf8ECDAGAQH/AgEAMB0GA1UdDgQWBBQo90pZkC16ZvdkxRPzTkLeaLzF/TAf
BgNVHSMEGDAWgBSBHwALEvSBSeN86u2jBBS1NIXMlzANBgkqhkiG9w0BAQUFAAOC
AQEAgRopm8PCiEGkSaYNIImP2MJVGA5JN7oKY/QEviufyBhD6Q+fv8UgnOqeURM7
IsrIxAcyydZJ0WpyIuYcHj1RcL4o13sNcZg6j6b7mCFgBTkmd3Ln3e8WIq8e0us+
OrCWnKkKGjVIjM5BNRuheHWp1a7KlsazlpX11jLFhDYh8cJPnJWK7oitC2Y5xvit
9pUouphWv0Z2p07gNEXQOKmOa6YrCtZ3s9D/RQ2WwjAFYCwNsIPljTFoC5m58jW/
Ihzpfs+OrLatIbkvmPfftgLxr4Gi0B0OEc1yckIFyMEPovh3FNTbakeRAYAmA0sW
Ut8h11EI8nRmiajzw/m++c69vQ==
-----END CERTIFICATE-----
Certificate:
    Data:
        Version: 3 (0x2)
        Serial Number: 1 (0x1)
        Signature Algorithm: sha1WithRSAEncryption
        Issuer: DC=org, DC=simple, O=Simple Inc, OU=Simple Root CA, CN=Simple Root CA
        Validity
            Not Before: Dec  6 23:41:41 2020 GMT
            Not After : Dec  6 23:41:41 2030 GMT
        Subject: DC=org, DC=simple, O=Simple Inc, OU=Simple Root CA, CN=Simple Root CA
        Subject Public Key Info:
            Public Key Algorithm: rsaEncryption
                RSA Public-Key: (2048 bit)
                Modulus:
                    00:cb:96:14:b8:b7:52:00:66:ca:5d:8a:9a:9b:fe:
                    bb:1b:d1:69:7f:3d:46:a1:d7:54:cf:44:fa:8d:64:
                    ac:2b:88:da:6f:55:54:bb:65:b4:0b:d6:04:04:98:
                    ab:a4:51:17:00:5e:d4:f2:4c:b8:f6:55:7b:9e:fb:
                    59:d6:da:bb:ce:ba:8a:3f:6b:9d:ba:ea:44:76:96:
                    6a:c0:c7:bb:fd:32:71:3d:bd:75:68:ea:80:50:8f:
                    5e:ad:a2:f5:6a:ff:b6:3f:ae:b5:6d:ad:11:bb:3e:
                    38:4a:53:ac:91:3e:42:7d:b1:a9:a2:70:f7:0a:bf:
                    8f:78:52:e6:5e:92:4a:68:e9:ba:37:d2:ee:3c:3f:
                    75:bd:3a:98:d2:22:bd:31:1e:4f:e6:35:41:4f:b9:
                    60:88:84:7a:98:df:a0:7b:72:ae:d3:66:9e:1c:31:
                    12:6b:90:e7:72:77:4a:bf:47:26:8d:81:3b:4b:ab:
                    80:09:b6:47:aa:fe:63:6a:47:66:24:0a:b2:6d:8a:
                    22:04:8c:b1:3a:7d:c6:4c:9d:0e:1d:51:2a:50:cf:
                    d5:59:ba:6d:f1:a0:1a:36:35:c3:5f:67:d1:e6:28:
                    21:31:c0:54:87:b3:84:e7:01:9f:c6:0c:22:c6:79:
                    08:73:0b:fd:8d:31:0f:8a:20:06:91:4c:14:e1:a8:
                    4c:97
                Exponent: 65537 (0x10001)
        X509v3 extensions:
            X509v3 Key Usage: critical
                Certificate Sign, CRL Sign
            X509v3 Basic Constraints: critical
                CA:TRUE
            X509v3 Subject Key Identifier: 
                81:1F:00:0B:12:F4:81:49:E3:7C:EA:ED:A3:04:14:B5:34:85:CC:97
            X509v3 Authority Key Identifier: 
                keyid:81:1F:00:0B:12:F4:81:49:E3:7C:EA:ED:A3:04:14:B5:34:85:CC:97

    Signature Algorithm: sha1WithRSAEncryption
         4d:2b:48:e3:e6:e9:88:20:9e:d0:28:30:a7:b1:48:60:11:4d:
         86:96:e7:b5:92:1f:27:f3:f8:ce:62:2c:16:46:7c:fa:2d:ed:
         89:45:21:5e:f4:bb:69:ca:fd:51:ed:b0:bd:b7:fc:08:cf:14:
         fe:a8:00:c7:46:a4:04:7a:1c:d5:bb:df:a5:42:40:cf:f7:4a:
         92:d2:78:f0:ff:4a:78:4a:ca:32:f9:be:09:df:60:8f:b8:b2:
         4b:82:37:e0:0b:4b:6f:52:43:8b:b8:1b:29:b1:25:d6:85:75:
         17:35:64:e8:9a:99:42:e4:af:8c:b1:4f:b6:78:f1:5d:87:72:
         ad:3e:bd:16:c2:44:b8:53:c6:01:6b:91:cd:c9:58:5c:fb:93:
         ac:8b:b9:e6:fc:1a:db:fc:3b:98:ac:31:3a:d6:9f:23:97:2f:
         93:be:89:f3:21:24:70:cb:8b:a2:85:74:47:d6:d7:59:68:8b:
         1e:40:f8:e5:11:82:e2:ac:ca:46:89:f5:01:7d:80:1d:b2:3d:
         f0:dd:7a:e3:98:dd:67:95:d1:48:b4:a0:c8:cf:ed:5a:3e:ff:
         48:fb:d6:da:56:c5:33:ba:7c:af:ac:b0:e1:62:1a:a9:e6:6b:
         9f:4f:80:f8:ec:e6:2a:8a:36:5c:e9:1c:93:73:b3:35:36:d9:
         46:24:c6:a9
-----BEGIN CERTIFICATE-----
MIIDxjCCAq6gAwIBAgIBATANBgkqhkiG9w0BAQUFADB0MRMwEQYKCZImiZPyLGQB
GRYDb3JnMRYwFAYKCZImiZPyLGQBGRYGc2ltcGxlMRMwEQYDVQQKDApTaW1wbGUg
SW5jMRcwFQYDVQQLDA5TaW1wbGUgUm9vdCBDQTEXMBUGA1UEAwwOU2ltcGxlIFJv
b3QgQ0EwHhcNMjAxMjA2MjM0MTQxWhcNMzAxMjA2MjM0MTQxWjB0MRMwEQYKCZIm
iZPyLGQBGRYDb3JnMRYwFAYKCZImiZPyLGQBGRYGc2ltcGxlMRMwEQYDVQQKDApT
aW1wbGUgSW5jMRcwFQYDVQQLDA5TaW1wbGUgUm9vdCBDQTEXMBUGA1UEAwwOU2lt
cGxlIFJvb3QgQ0EwggEiMA0GCSqGSIb3DQEBAQUAA4IBDwAwggEKAoIBAQDLlhS4
t1IAZspdipqb/rsb0Wl/PUah11TPRPqNZKwriNpvVVS7ZbQL1gQEmKukURcAXtTy
TLj2VXue+1nW2rvOuoo/a5266kR2lmrAx7v9MnE9vXVo6oBQj16tovVq/7Y/rrVt
rRG7PjhKU6yRPkJ9samicPcKv494UuZekkpo6bo30u48P3W9OpjSIr0xHk/mNUFP
uWCIhHqY36B7cq7TZp4cMRJrkOdyd0q/RyaNgTtLq4AJtkeq/mNqR2YkCrJtiiIE
jLE6fcZMnQ4dUSpQz9VZum3xoBo2NcNfZ9HmKCExwFSHs4TnAZ/GDCLGeQhzC/2N
MQ+KIAaRTBThqEyXAgMBAAGjYzBhMA4GA1UdDwEB/wQEAwIBBjAPBgNVHRMBAf8E
BTADAQH/MB0GA1UdDgQWBBSBHwALEvSBSeN86u2jBBS1NIXMlzAfBgNVHSMEGDAW
gBSBHwALEvSBSeN86u2jBBS1NIXMlzANBgkqhkiG9w0BAQUFAAOCAQEATStI4+bp
iCCe0Cgwp7FIYBFNhpbntZIfJ/P4zmIsFkZ8+i3tiUUhXvS7acr9Ue2wvbf8CM8U
/qgAx0akBHoc1bvfpUJAz/dKktJ48P9KeErKMvm+Cd9gj7iyS4I34AtLb1JDi7gb
KbEl1oV1FzVk6JqZQuSvjLFPtnjxXYdyrT69FsJEuFPGAWuRzclYXPuTrIu55vwa
2/w7mKwxOtafI5cvk76J8yEkcMuLooV0R9bXWWiLHkD45RGC4qzKRon1AX2AHbI9
8N1645jdZ5XRSLSgyM/tWj7/SPvW2lbFM7p8r6yw4WIaqeZrn0+A+OzmKoo2XOkc
k3OzNTbZRiTGqQ==
-----END CERTIFICATE-----
